(dp0
Vnotepad
p1
g1
sVsteam
p2
Vsteam
p3
sVchrome
p4
g4
sVfirefox
p5
g5
sVyoutube
p6
Vwww.youtube.com
p7
sVnetflix
p8
Vwww.netflix.com
p9
sVtwitter
p10
Vwww.twitter.com
p11
sVinstagram
p12
Vwww.instagram.com
p13
sVfacebook
p14
Vwww.facebook.com
p15
sVlinkedin
p16
Vwww.linkedin.com
p17
sVgmail
p18
Vwww.gmail.com
p19
sVwhatsapp
p20
Vhttps://web.whatsapp.com/
p21
sVgc
p22
Vhttps://gamersclub.com.br/
p23
sVlol
p24
VC:/Program Files (x86)/League of Legends
p25
sVjoguinho
p26
g25
sVtetris
p27
Vsteam://rungameid/316750
p28
sVcs
p29
Vsteam://rungameid/730
p30
sVcounter
p31
g30
sVcs go
p32
g30
sVcomedy night
p33
Vsteam://rungameid/665360
p34
sVgta
p35
VD:/Program Files/Rockstar Games/Grand Theft Auto V/PlayGTAV
p36
sVcomedy
p37
g34
sVgamers club
p38
g23
sVsublime text
p39
VC:/Program Files/Sublime Text 2/sublime_text
p40
sVsublime
p41
g40
sVwhats
p42
g21
sVleague of legends
p43
g25
sVvegas
p44
VC:/Program Files/VEGAS/VEGAS Pro 15.0/vegas150
p45
sVvegas pro
p46
g45
sVpycharm
p47
VC:/Program Files/JetBrains/PyCharm Community Edition 2018.3.2/bin/pycharm64
p48
sVspotify
p49
VD:/Users/Max/Desktop/Spotify - Atalho.lnk
p50
s.