(dp0
Vnotepad
p1
g1
sVyoutube
p2
Vwww.youtube.com
p3
sVchrome
p4
g4
sVfirefox
p5
g5
sVlol
p6
VLeagueClient
p7
sVjoguinho
p8
g7
sVtetris
p9
VTetris
p10
sVcs
p11
Vcsgo
p12
sVcounter
p13
g12
sVcs go
p14
g12
sVcomedy night
p15
Vcomedy
p16
sVgta
p17
VGTAV
p18
sVcomedy
p19
g16
sVnetflix
p20
Vwww.netflix.com
p21
sVtwitter
p22
Vwww.twitter.com
p23
sVspotify
p24
VSpotify - Atalho
p25
sVgc
p26
Vhttps://gamersclub.com.br/
p27
sVgamers club
p28
g27
sVanti cheat
p29
VGCLauncher
p30
sVgc launcher
p31
g30
sVold school
p32
VOSBuddy64
p33
sVrunescape
p34
g33
sVsteam
p35
Vsteam
p36
sVsublime text
p37
Vsublime_text
p38
sVsublime
p39
g38
sVwhatsapp
p40
VWhatsApp
p41
sVwhats
p42
g41
sVleague of legends
p43
VLeagueClient
p44
sVvegas
p45
Vvegas150
p46
sVvegas pro
p47
g46
sVpycharm
p48
Vpycharm64
p49
s.